target datalayout = "e-m:e-p270:32:32-p271:32:32-p272:64:64-i64:64-i128:128-f80:128-n8:16:32:64-S128"
target triple = "x86_64-pc-linux-gnu"

%struct.cl_fmap = type { ptr, ptr, ptr, i64, i64, i64, i64, i8, i8, i8, i64, i64, i64, i64, ptr, ptr, ptr, ptr, ptr, ptr, ptr, i8, [16 x i8], i8, [20 x i8], i8, [32 x i8], ptr, ptr }

@.str.33 = private unnamed_addr constant [69 x i8] c"cli_scan_desc: Failed to allocate new map for file descriptor scan.\0A\00", align 1
@.str.34 = private unnamed_addr constant [37 x i8] c"cli_scan_desc: Failed to scan fmap.\0A\00", align 1

; Function Attrs: nounwind uwtable
define internal void @funmap(ptr noundef %0) #0 {
  %2 = alloca ptr, align 8
  store ptr %0, ptr %2, align 8
  %3 = load ptr, ptr %2, align 8
  %4 = getelementptr inbounds %struct.cl_fmap, ptr %3, i32 0, i32 14
  %5 = load ptr, ptr %4, align 8
  %6 = load ptr, ptr %2, align 8
  call void %5(ptr noundef %6)
  ret void
}

; Function Attrs: nounwind uwtable
define i32 @cli_scan_desc(i32 noundef %0, ptr noundef %1, i32 noundef %2, i1 noundef zeroext %3, ptr noundef %4, i32 noundef %5, ptr noundef %6, ptr noundef %7, i32 noundef %8) #0 {
  %10 = alloca i32, align 4
  %11 = alloca ptr, align 8
  %12 = alloca i32, align 4
  %13 = alloca i8, align 1
  %14 = alloca ptr, align 8
  %15 = alloca i32, align 4
  %16 = alloca ptr, align 8
  %17 = alloca ptr, align 8
  %18 = alloca i32, align 4
  %19 = alloca i32, align 4
  %20 = alloca i32, align 4
  %21 = alloca ptr, align 8
  store i32 %0, ptr %10, align 4
  store ptr %1, ptr %11, align 8
  store i32 %2, ptr %12, align 4
  %22 = zext i1 %3 to i8
  store i8 %22, ptr %13, align 1
  store ptr %4, ptr %14, align 8
  store i32 %5, ptr %15, align 4
  store ptr %6, ptr %16, align 8
  store ptr %7, ptr %17, align 8
  store i32 %8, ptr %18, align 4
  store i32 0, ptr %19, align 4
  store ptr null, ptr %21, align 8
  %23 = load i32, ptr %10, align 4
  %24 = load ptr, ptr %17, align 8
  %25 = call ptr @fmap_check_empty(i32 noundef %23, i64 noundef 0, i64 noundef 0, ptr noundef %20, ptr noundef %24)
  store ptr %25, ptr %21, align 8
  %26 = load ptr, ptr %21, align 8
  %27 = icmp eq ptr null, %26
  br i1 %27, label %28, label %33

28:                                               ; preds = %9
  %29 = load i32, ptr %20, align 4
  %30 = icmp ne i32 %29, 0
  br i1 %30, label %32, label %31

31:                                               ; preds = %28
  call void (ptr, ...) @cli_dbgmsg(ptr noundef @.str.33)
  store i32 20, ptr %19, align 4
  br label %32

32:                                               ; preds = %31, %28
  br label %53

33:                                               ; preds = %9
  %34 = load ptr, ptr %11, align 8
  %35 = load ptr, ptr %21, align 8
  %36 = load i32, ptr %12, align 4
  %37 = load i32, ptr %18, align 4
  %38 = call i32 @cli_recursion_stack_push(ptr noundef %34, ptr noundef %35, i32 noundef %36, i1 noundef zeroext true, i32 noundef %37)
  store i32 %38, ptr %19, align 4
  %39 = load i32, ptr %19, align 4
  %40 = icmp ne i32 0, %39
  br i1 %40, label %41, label %42

41:                                               ; preds = %33
  call void (ptr, ...) @cli_dbgmsg(ptr noundef @.str.34)
  br label %53

42:                                               ; preds = %33
  %43 = load ptr, ptr %11, align 8
  %44 = load i32, ptr %12, align 4
  %45 = load i8, ptr %13, align 1
  %46 = trunc i8 %45 to i1
  %47 = load ptr, ptr %14, align 8
  %48 = load i32, ptr %15, align 4
  %49 = load ptr, ptr %16, align 8
  %50 = call i32 @cli_scan_fmap(ptr noundef %43, i32 noundef %44, i1 noundef zeroext %46, ptr noundef %47, i32 noundef %48, ptr noundef %49, ptr noundef null)
  store i32 %50, ptr %19, align 4
  %51 = load ptr, ptr %11, align 8
  %52 = call ptr @cli_recursion_stack_pop(ptr noundef %51)
  br label %53

53:                                               ; preds = %42, %41, %32
  %54 = load ptr, ptr %21, align 8
  %55 = icmp ne ptr null, %54
  br i1 %55, label %56, label %58

56:                                               ; preds = %53
  %57 = load ptr, ptr %21, align 8
  call void @funmap(ptr noundef %57)
  br label %58

58:                                               ; preds = %56, %53
  %59 = load i32, ptr %19, align 4
  ret i32 %59
}