; Function Attrs: nounwind uwtable
define i32 @cli_scan_desc(i32 noundef %0, ptr noundef %1, i32 noundef %2, i1 noundef zeroext %3, ptr noundef %4, i32 noundef %5, ptr noundef %6, ptr noundef %7, i32 noundef %8) local_unnamed_addr #0 {
  %10 = alloca i32, align 4
  %11 = call ptr @fmap_check_empty(i32 noundef %0, i64 noundef 0, i64 noundef 0, ptr noundef nonnull %10, ptr noundef %7) #12
  %12 = icmp eq ptr %11, null
  br i1 %12, label %13, label %16

13:                                               ; preds = %9
  %14 = load i32, ptr %10, align 4
  %.not19 = icmp eq i32 %14, 0
  br i1 %.not19, label %15, label %.thread

15:                                               ; preds = %13
  call void (ptr, ...) @cli_dbgmsg(ptr noundef nonnull @.str.33) #12
  br label %.thread

16:                                               ; preds = %9
  %17 = call i32 @cli_recursion_stack_push(ptr noundef %1, ptr noundef nonnull %11, i32 noundef %2, i1 noundef zeroext true, i32 noundef %8) #12
  %.not = icmp eq i32 %17, 0
  br i1 %.not, label %19, label %18

18:                                               ; preds = %16
  call void (ptr, ...) @cli_dbgmsg(ptr noundef nonnull @.str.34) #12
  br label %22

19:                                               ; preds = %16
  %20 = call i32 @cli_scan_fmap(ptr noundef %1, i32 noundef %2, i1 noundef zeroext %3, ptr noundef %4, i32 noundef %5, ptr noundef %6, ptr noundef null)
  %21 = call ptr @cli_recursion_stack_pop(ptr noundef %1) #12
  br label %22

22:                                               ; preds = %18, %19
  %.0 = phi i32 [ %17, %18 ], [ %20, %19 ]
  %23 = getelementptr inbounds i8, ptr %11, i64 96
  %24 = load ptr, ptr %23, align 8
  call void %24(ptr noundef nonnull %11) #12
  br label %.thread

.thread:                                          ; preds = %15, %13, %22
  %.022 = phi i32 [ %.0, %22 ], [ 20, %15 ], [ 0, %13 ]
  ret i32 %.022
}